; Function Attrs: mustprogress nounwind uwtable
define internal noundef zeroext i1 @_ZNSt17_Function_handlerIFbRKN4llvm11GlobalValueEEN12_GLOBAL__N_115PreserveAPIListEE10_M_managerERSt9_Any_dataRKS8_St18_Manager_operation(ptr nocapture noundef nonnull align 8 dereferenceable(16) %0, ptr nocapture noundef nonnull readonly align 8 dereferenceable(16) %1, i32 noundef %2) #0 align 2 {
  %.val = load ptr, ptr %1, align 8
  switch i32 %2, label %_ZNSt14_Function_base13_Base_managerIN12_GLOBAL__N_115PreserveAPIListEE10_M_managerERSt9_Any_dataRKS4_St18_Manager_operation.exit [
    i32 1, label %4
    i32 0, label %5
    i32 3, label %26
    i32 2, label %6
  ]

4:                                                ; preds = %3
  store ptr %.val, ptr %0, align 8
  br label %_ZNSt14_Function_base13_Base_managerIN12_GLOBAL__N_115PreserveAPIListEE10_M_managerERSt9_Any_dataRKS4_St18_Manager_operation.exit

5:                                                ; preds = %3
  store ptr null, ptr %0, align 8
  br label %_ZNSt14_Function_base13_Base_managerIN12_GLOBAL__N_115PreserveAPIListEE10_M_managerERSt9_Any_dataRKS4_St18_Manager_operation.exit

6:                                                ; preds = %3
  %7 = tail call noalias noundef nonnull dereferenceable(104) ptr @_Znwm(i64 noundef 104) #19
  %8 = getelementptr inbounds i8, ptr %7, i64 16
  tail call void @_ZN4llvm15SmallVectorBaseIjEC2EPvm(ptr noundef nonnull align 8 dereferenceable(16) %7, ptr noundef nonnull %8, i64 noundef 1) #16
  %9 = tail call noundef zeroext i1 @_ZNK4llvm15SmallVectorBaseIjE5emptyEv(ptr noundef nonnull align 8 dereferenceable(16) %.val) #16
  br i1 %9, label %_ZN4llvm11SmallVectorINS_11GlobPatternELj1EEC2ERKS2_.exit.i.i.i.i, label %10

10:                                               ; preds = %6
  %11 = tail call noundef nonnull align 8 dereferenceable(16) ptr @_ZN4llvm15SmallVectorImplINS_11GlobPatternEEaSERKS2_(ptr noundef nonnull align 8 dereferenceable(16) %7, ptr noundef nonnull align 8 dereferenceable(16) %.val)
  br label %_ZN4llvm11SmallVectorINS_11GlobPatternELj1EEC2ERKS2_.exit.i.i.i.i

_ZN4llvm11SmallVectorINS_11GlobPatternELj1EEC2ERKS2_.exit.i.i.i.i: ; preds = %10, %6
  %12 = getelementptr inbounds nuw i8, ptr %7, i64 88
  %13 = getelementptr inbounds nuw i8, ptr %.val, i64 88
  %14 = load ptr, ptr %13, align 8
  store ptr %14, ptr %12, align 8
  %15 = getelementptr inbounds i8, ptr %7, i64 96
  %16 = getelementptr inbounds i8, ptr %.val, i64 96
  %17 = load ptr, ptr %16, align 8
  store ptr %17, ptr %15, align 8
  %.not.i.i.i.i.i.i.i = icmp eq ptr %17, null
  br i1 %.not.i.i.i.i.i.i.i, label %_ZNSt14_Function_base13_Base_managerIN12_GLOBAL__N_115PreserveAPIListEE15_M_init_functorIRKS2_EEvRSt9_Any_dataOT_.exit.i, label %18

18:                                               ; preds = %_ZN4llvm11SmallVectorINS_11GlobPatternELj1EEC2ERKS2_.exit.i.i.i.i
  %19 = getelementptr inbounds nuw i8, ptr %17, i64 8
  %20 = load i8, ptr @__libc_single_threaded, align 1
  %.not.i.i.i.i.i.i.i.i = icmp eq i8 %20, 0
  br i1 %.not.i.i.i.i.i.i.i.i, label %24, label %21

21:                                               ; preds = %18
  %22 = load i32, ptr %19, align 4
  %23 = add nsw i32 %22, 1
  store i32 %23, ptr %19, align 4
  br label %_ZNSt14_Function_base13_Base_managerIN12_GLOBAL__N_115PreserveAPIListEE15_M_init_functorIRKS2_EEvRSt9_Any_dataOT_.exit.i

24:                                               ; preds = %18
  %25 = atomicrmw volatile add ptr %19, i32 1 acq_rel, align 4
  br label %_ZNSt14_Function_base13_Base_managerIN12_GLOBAL__N_115PreserveAPIListEE15_M_init_functorIRKS2_EEvRSt9_Any_dataOT_.exit.i

_ZNSt14_Function_base13_Base_managerIN12_GLOBAL__N_115PreserveAPIListEE15_M_init_functorIRKS2_EEvRSt9_Any_dataOT_.exit.i: ; preds = %24, %21, %_ZN4llvm11SmallVectorINS_11GlobPatternELj1EEC2ERKS2_.exit.i.i.i.i
  store ptr %7, ptr %0, align 8
  br label %_ZNSt14_Function_base13_Base_managerIN12_GLOBAL__N_115PreserveAPIListEE10_M_managerERSt9_Any_dataRKS4_St18_Manager_operation.exit

26:                                               ; preds = %3
  %.val6.i = load ptr, ptr %0, align 8
  %27 = icmp eq ptr %.val6.i, null
  br i1 %27, label %_ZNSt14_Function_base13_Base_managerIN12_GLOBAL__N_115PreserveAPIListEE10_M_managerERSt9_Any_dataRKS4_St18_Manager_operation.exit, label %28

28:                                               ; preds = %26
  tail call fastcc void @_ZN12_GLOBAL__N_115PreserveAPIListD2Ev(ptr noundef nonnull align 8 dereferenceable(104) %.val6.i) #16
  tail call void @_ZdlPvm(ptr noundef nonnull %.val6.i, i64 noundef 104) #17
  br label %_ZNSt14_Function_base13_Base_managerIN12_GLOBAL__N_115PreserveAPIListEE10_M_managerERSt9_Any_dataRKS4_St18_Manager_operation.exit

_ZNSt14_Function_base13_Base_managerIN12_GLOBAL__N_115PreserveAPIListEE10_M_managerERSt9_Any_dataRKS4_St18_Manager_operation.exit: ; preds = %3, %28, %26, %_ZNSt14_Function_base13_Base_managerIN12_GLOBAL__N_115PreserveAPIListEE15_M_init_functorIRKS2_EEvRSt9_Any_dataOT_.exit.i, %5, %4
  ret i1 false
}